; Function Attrs: mustprogress nounwind uwtable
define internal fastcc void @"_ZSt25__unguarded_linear_insertIN9__gnu_cxx17__normal_iteratorIPSt4pairINSt7__cxx1112basic_stringIcSt11char_traitsIcESaIcEEES8_ESt6vectorIS9_SaIS9_EEEENS0_5__ops14_Val_comp_iterIZN3g2o11CommandArgs9printHelpERSoE3$_0EEEvT_T0_"(ptr nonnull %0) unnamed_addr #3 personality ptr @__gxx_personality_v0 {
  %2 = alloca %"struct.std::pair", align 8
  call void @_ZNSt7__cxx1112basic_stringIcSt11char_traitsIcESaIcEEC1EOS4_(ptr noundef nonnull align 8 dereferenceable(32) %2, ptr noundef nonnull align 8 dereferenceable(32) %0) #20
  %3 = getelementptr inbounds nuw i8, ptr %2, i64 32
  %4 = getelementptr inbounds nuw i8, ptr %0, i64 32
  call void @_ZNSt7__cxx1112basic_stringIcSt11char_traitsIcESaIcEEC1EOS4_(ptr noundef nonnull align 8 dereferenceable(32) %3, ptr noundef nonnull align 8 dereferenceable(32) %4) #20
  br label %5

5:                                                ; preds = %11, %1
  %.sroa.03.0 = phi ptr [ %0, %1 ], [ %.sroa.0.0, %11 ]
  %.sroa.0.0 = getelementptr inbounds i8, ptr %.sroa.03.0, i64 -64
  %6 = invoke noundef i32 @_ZNKSt7__cxx1112basic_stringIcSt11char_traitsIcESaIcEE7compareERKS4_(ptr noundef nonnull align 8 dereferenceable(32) %2, ptr noundef nonnull align 8 dereferenceable(32) %.sroa.0.0)
          to label %"_ZN9__gnu_cxx5__ops14_Val_comp_iterIZN3g2o11CommandArgs9printHelpERSoE3$_0EclISt4pairINSt7__cxx1112basic_stringIcSt11char_traitsIcESaIcEEESE_ENS_17__normal_iteratorIPSF_St6vectorISF_SaISF_EEEEEEbRT_T0_.exit" unwind label %7

7:                                                ; preds = %5
  %8 = landingpad { ptr, i32 }
          catch ptr null
  %9 = extractvalue { ptr, i32 } %8, 0
  call void @__clang_call_terminate(ptr %9) #23
  unreachable

"_ZN9__gnu_cxx5__ops14_Val_comp_iterIZN3g2o11CommandArgs9printHelpERSoE3$_0EclISt4pairINSt7__cxx1112basic_stringIcSt11char_traitsIcESaIcEEESE_ENS_17__normal_iteratorIPSF_St6vectorISF_SaISF_EEEEEEbRT_T0_.exit": ; preds = %5
  %10 = icmp slt i32 %6, 0
  br i1 %10, label %11, label %16

11:                                               ; preds = %"_ZN9__gnu_cxx5__ops14_Val_comp_iterIZN3g2o11CommandArgs9printHelpERSoE3$_0EclISt4pairINSt7__cxx1112basic_stringIcSt11char_traitsIcESaIcEEESE_ENS_17__normal_iteratorIPSF_St6vectorISF_SaISF_EEEEEEbRT_T0_.exit"
  %12 = call noundef nonnull align 8 dereferenceable(32) ptr @_ZNSt7__cxx1112basic_stringIcSt11char_traitsIcESaIcEEaSEOS4_(ptr noundef nonnull align 8 dereferenceable(32) %.sroa.03.0, ptr noundef nonnull align 8 dereferenceable(32) %.sroa.0.0) #20
  %13 = getelementptr inbounds i8, ptr %.sroa.03.0, i64 -32
  %14 = getelementptr inbounds nuw i8, ptr %.sroa.03.0, i64 32
  %15 = call noundef nonnull align 8 dereferenceable(32) ptr @_ZNSt7__cxx1112basic_stringIcSt11char_traitsIcESaIcEEaSEOS4_(ptr noundef nonnull align 8 dereferenceable(32) %14, ptr noundef nonnull align 8 dereferenceable(32) %13) #20
  br label %5, !llvm.loop !58

16:                                               ; preds = %"_ZN9__gnu_cxx5__ops14_Val_comp_iterIZN3g2o11CommandArgs9printHelpERSoE3$_0EclISt4pairINSt7__cxx1112basic_stringIcSt11char_traitsIcESaIcEEESE_ENS_17__normal_iteratorIPSF_St6vectorISF_SaISF_EEEEEEbRT_T0_.exit"
  %17 = call noundef nonnull align 8 dereferenceable(32) ptr @_ZNSt7__cxx1112basic_stringIcSt11char_traitsIcESaIcEEaSEOS4_(ptr noundef nonnull align 8 dereferenceable(32) %.sroa.03.0, ptr noundef nonnull align 8 dereferenceable(32) %2) #20
  %18 = getelementptr inbounds nuw i8, ptr %.sroa.03.0, i64 32
  %19 = call noundef nonnull align 8 dereferenceable(32) ptr @_ZNSt7__cxx1112basic_stringIcSt11char_traitsIcESaIcEEaSEOS4_(ptr noundef nonnull align 8 dereferenceable(32) %18, ptr noundef nonnull align 8 dereferenceable(32) %3) #20
  call void @_ZNSt7__cxx1112basic_stringIcSt11char_traitsIcESaIcEED1Ev(ptr noundef nonnull align 8 dereferenceable(32) %3) #20
  call void @_ZNSt7__cxx1112basic_stringIcSt11char_traitsIcESaIcEED1Ev(ptr noundef nonnull align 8 dereferenceable(32) %2) #20
  ret void
}